; Function Attrs: mustprogress nounwind uwtable
define internal fastcc void @_ZL22decodeRVCInstrRdRs1Rs2RN4llvm6MCInstEjmPKNS_14MCDisassemblerE(ptr noundef nonnull align 8 dereferenceable(128) %0, i32 noundef %1, ptr noundef nonnull readonly captures(none) %2) unnamed_addr #0 {
  %4 = lshr i32 %1, 7
  %5 = and i32 %4, 31
  %6 = getelementptr i8, ptr %2, i64 16
  %.val12 = load ptr, ptr %6, align 8
  %7 = getelementptr i8, ptr %.val12, i64 216
  %.val12.val = load i64, ptr %7, align 8
  %8 = tail call fastcc noundef i32 @_ZL22DecodeGPRRegisterClassRN4llvm6MCInstEjmPKNS_14MCDisassemblerE(ptr noundef nonnull align 8 dereferenceable(128) %0, i32 noundef %5, i64 %.val12.val)
  %9 = getelementptr inbounds nuw i8, ptr %0, i64 16
  %10 = load ptr, ptr %9, align 8
  %.sroa.0.0.copyload = load i8, ptr %10, align 8
  %.sroa.21.0..sroa_idx = getelementptr inbounds nuw i8, ptr %10, i64 8
  %.sroa.21.0.copyload = load i64, ptr %.sroa.21.0..sroa_idx, align 8
  %11 = tail call noundef i64 @_ZNK4llvm15SmallVectorBaseIjE4sizeEv(ptr noundef nonnull align 8 dereferenceable(16) %9) #10
  %12 = add i64 %11, 1
  %13 = tail call noundef i64 @_ZNK4llvm15SmallVectorBaseIjE8capacityEv(ptr noundef nonnull align 8 dereferenceable(16) %9) #10
  %.not.i.i.i.i = icmp ugt i64 %12, %13
  br i1 %.not.i.i.i.i, label %14, label %_ZN4llvm6MCInst10addOperandENS_9MCOperandE.exit

14:                                               ; preds = %3
  %15 = getelementptr inbounds nuw i8, ptr %0, i64 32
  tail call void @_ZN4llvm15SmallVectorBaseIjE8grow_podEPvmm(ptr noundef nonnull align 8 dereferenceable(16) %9, ptr noundef nonnull %15, i64 noundef %12, i64 noundef 16) #10
  br label %_ZN4llvm6MCInst10addOperandENS_9MCOperandE.exit

_ZN4llvm6MCInst10addOperandENS_9MCOperandE.exit:  ; preds = %3, %14
  %16 = lshr i32 %1, 2
  %17 = and i32 %16, 31
  %18 = load ptr, ptr %9, align 8
  %19 = tail call noundef i64 @_ZNK4llvm15SmallVectorBaseIjE4sizeEv(ptr noundef nonnull align 8 dereferenceable(16) %9) #10
  %20 = getelementptr inbounds %"class.llvm::MCOperand", ptr %18, i64 %19
  store i8 %.sroa.0.0.copyload, ptr %20, align 1
  %.sroa.22.0..sroa_idx.i.i = getelementptr inbounds nuw i8, ptr %20, i64 8
  store i64 %.sroa.21.0.copyload, ptr %.sroa.22.0..sroa_idx.i.i, align 1
  %21 = tail call noundef i64 @_ZNK4llvm15SmallVectorBaseIjE4sizeEv(ptr noundef nonnull align 8 dereferenceable(16) %9) #10
  %22 = add i64 %21, 1
  tail call void @_ZN4llvm15SmallVectorBaseIjE8set_sizeEm(ptr noundef nonnull align 8 dereferenceable(16) %9, i64 noundef %22) #10
  %.val11 = load ptr, ptr %6, align 8
  %23 = getelementptr i8, ptr %.val11, i64 216
  %.val11.val = load i64, ptr %23, align 8
  %24 = tail call fastcc noundef i32 @_ZL22DecodeGPRRegisterClassRN4llvm6MCInstEjmPKNS_14MCDisassemblerE(ptr noundef nonnull align 8 dereferenceable(128) %0, i32 noundef %17, i64 %.val11.val)
  ret void
}